; Function Attrs: mustprogress uwtable
define hidden noundef nonnull align 8 dereferenceable(24) ptr @_ZN6cvtest9all_typesEv() local_unnamed_addr #4 personality ptr @__gxx_personality_v0 {
  %1 = load atomic i8, ptr @_ZGVZN6cvtest9all_typesEvE1v acquire, align 8
  %2 = icmp eq i8 %1, 0
  br i1 %2, label %3, label %8, !prof !56

3:                                                ; preds = %0
  %4 = tail call i32 @__cxa_guard_acquire(ptr nonnull @_ZGVZN6cvtest9all_typesEvE1v) #27
  %.not = icmp eq i32 %4, 0
  br i1 %.not, label %8, label %5

5:                                                ; preds = %3
  invoke void @_ZN6cvtest5typesEiiii(ptr dead_on_unwind nonnull writable sret(%"class.std::vector.9") align 8 @_ZZN6cvtest9all_typesEvE1v, i32 noundef 0, i32 noundef 6, i32 noundef 1, i32 noundef 4)
          to label %6 unwind label %9

6:                                                ; preds = %5
  %7 = tail call i32 @__cxa_atexit(ptr nonnull @_ZNSt6vectorIN4perf7MatTypeESaIS1_EED2Ev, ptr nonnull @_ZZN6cvtest9all_typesEvE1v, ptr nonnull @__dso_handle) #27
  tail call void @__cxa_guard_release(ptr nonnull @_ZGVZN6cvtest9all_typesEvE1v) #27
  br label %8

8:                                                ; preds = %6, %3, %0
  ret ptr @_ZZN6cvtest9all_typesEvE1v

9:                                                ; preds = %5
  %10 = landingpad { ptr, i32 }
          cleanup
  tail call void @__cxa_guard_abort(ptr nonnull @_ZGVZN6cvtest9all_typesEvE1v) #27
  resume { ptr, i32 } %10
}